; Function Attrs: mustprogress uwtable
define void @_ZN4cvc56parser20GetAssignmentCommandC2Ev(ptr noundef nonnull align 8 dereferenceable(40) initializes((0, 16)) %0) unnamed_addr #3 align 2 personality ptr @__gxx_personality_v0 {
  %2 = getelementptr inbounds nuw i8, ptr %0, i64 8
  store ptr null, ptr %2, align 8, !tbaa !48
  store ptr getelementptr inbounds nuw inrange(-16, 56) (i8, ptr @_ZTVN4cvc56parser20GetAssignmentCommandE, i64 16), ptr %0, align 8, !tbaa !6
  %3 = getelementptr inbounds nuw i8, ptr %0, i64 16
  invoke void @_ZN4cvc54TermC1Ev(ptr noundef nonnull align 8 dereferenceable(24) %3)
          to label %4 unwind label %5

4:                                                ; preds = %1
  ret void

5:                                                ; preds = %1
  %6 = landingpad { ptr, i32 }
          cleanup
  store ptr getelementptr inbounds nuw inrange(-16, 56) (i8, ptr @_ZTVN4cvc56parser3CmdE, i64 16), ptr %0, align 8, !tbaa !6
  %7 = load ptr, ptr %2, align 8, !tbaa !48
  %.not.i = icmp eq ptr %7, null
  %8 = load ptr, ptr @_ZN4cvc56parser14CommandSuccess10s_instanceE, align 8
  %.not2.i = icmp eq ptr %7, %8
  %or.cond.i = select i1 %.not.i, i1 true, i1 %.not2.i
  br i1 %or.cond.i, label %_ZN4cvc56parser3CmdD2Ev.exit, label %9

9:                                                ; preds = %5
  %10 = load ptr, ptr %7, align 8, !tbaa !6
  %11 = getelementptr inbounds nuw i8, ptr %10, i64 8
  %12 = load ptr, ptr %11, align 8
  tail call void %12(ptr noundef nonnull align 8 dereferenceable(8) %7) #33
  br label %_ZN4cvc56parser3CmdD2Ev.exit

_ZN4cvc56parser3CmdD2Ev.exit:                     ; preds = %5, %9
  resume { ptr, i32 } %6
}